; Function Attrs: mustprogress uwtable
define noundef i64 @_ZNK2cv3Mat5totalEii(ptr noundef nonnull readonly align 8 captures(none) dereferenceable(96) %0, i32 noundef %1, i32 noundef %2) local_unnamed_addr #1 align 2 personality ptr @__gxx_personality_v0 {
  %4 = alloca %"class.std::__cxx11::basic_string", align 8
  %5 = alloca %"class.std::allocator", align 1
  %6 = icmp slt i32 %1, 0
  %.not = icmp sgt i32 %1, %2
  %or.cond = or i1 %6, %.not
  br i1 %or.cond, label %7, label %17

7:                                                ; preds = %3
  call void @llvm.lifetime.start.p0(i64 32, ptr nonnull %4) #24
  call void @llvm.lifetime.start.p0(i64 1, ptr nonnull %5) #24
  call void @_ZNSt7__cxx1112basic_stringIcSt11char_traitsIcESaIcEEC2EPKcRKS3_(ptr noundef nonnull align 8 dereferenceable(32) %4, ptr noundef nonnull @.str.14, ptr noundef nonnull align 1 dereferenceable(1) %5)
  invoke void @_ZN2cv5errorEiRKNSt7__cxx1112basic_stringIcSt11char_traitsIcESaIcEEEPKcS9_i(i32 noundef -215, ptr noundef nonnull align 8 dereferenceable(32) %4, ptr noundef nonnull @__func__._ZNK2cv3Mat5totalEii, ptr noundef nonnull @.str.1, i32 noundef 589) #25
          to label %8 unwind label %9

8:                                                ; preds = %7
  unreachable

9:                                                ; preds = %7
  %10 = landingpad { ptr, i32 }
          cleanup
  %11 = load ptr, ptr %4, align 8, !tbaa !26
  %12 = getelementptr inbounds nuw i8, ptr %4, i64 16
  %13 = icmp eq ptr %11, %12
  br i1 %13, label %_ZNKSt7__cxx1112basic_stringIcSt11char_traitsIcESaIcEE11_M_is_localEv.exit.thread.i.i, label %_ZNKSt7__cxx1112basic_stringIcSt11char_traitsIcESaIcEE11_M_is_localEv.exit.i.i

_ZNKSt7__cxx1112basic_stringIcSt11char_traitsIcESaIcEE11_M_is_localEv.exit.thread.i.i: ; preds = %9
  %14 = getelementptr inbounds nuw i8, ptr %4, i64 8
  %15 = load i64, ptr %14, align 8, !tbaa !29
  %16 = icmp ult i64 %15, 16
  call void @llvm.assume(i1 %16)
  br label %_ZNSt7__cxx1112basic_stringIcSt11char_traitsIcESaIcEED2Ev.exit

_ZNKSt7__cxx1112basic_stringIcSt11char_traitsIcESaIcEE11_M_is_localEv.exit.i.i: ; preds = %9
  call void @_ZdlPv(ptr noundef %11) #26
  br label %_ZNSt7__cxx1112basic_stringIcSt11char_traitsIcESaIcEED2Ev.exit

_ZNSt7__cxx1112basic_stringIcSt11char_traitsIcESaIcEED2Ev.exit: ; preds = %_ZNKSt7__cxx1112basic_stringIcSt11char_traitsIcESaIcEE11_M_is_localEv.exit.i.i, %_ZNKSt7__cxx1112basic_stringIcSt11char_traitsIcESaIcEE11_M_is_localEv.exit.thread.i.i
  call void @llvm.lifetime.end.p0(i64 1, ptr nonnull %5) #24
  call void @llvm.lifetime.end.p0(i64 32, ptr nonnull %4) #24
  resume { ptr, i32 } %10

17:                                               ; preds = %3
  %18 = getelementptr inbounds nuw i8, ptr %0, i64 4
  %19 = load i32, ptr %18, align 4, !tbaa !53
  %. = tail call i32 @llvm.smin.i32(i32 %2, i32 %19)
  %20 = icmp slt i32 %1, %.
  br i1 %20, label %.lr.ph, label %._crit_edge

.lr.ph:                                           ; preds = %17
  %21 = getelementptr inbounds nuw i8, ptr %0, i64 64
  %22 = load ptr, ptr %21, align 8, !tbaa !49
  %23 = zext nneg i32 %1 to i64
  br label %24

._crit_edge:                                      ; preds = %24, %17
  %.015.lcssa = phi i64 [ 1, %17 ], [ %28, %24 ]
  ret i64 %.015.lcssa

24:                                               ; preds = %.lr.ph, %24
  %indvars.iv = phi i64 [ %23, %.lr.ph ], [ %indvars.iv.next, %24 ]
  %.01522 = phi i64 [ 1, %.lr.ph ], [ %28, %24 ]
  %25 = getelementptr inbounds nuw i32, ptr %22, i64 %indvars.iv
  %26 = load i32, ptr %25, align 4, !tbaa !23
  %27 = sext i32 %26 to i64
  %28 = mul i64 %.01522, %27
  %indvars.iv.next = add nuw nsw i64 %indvars.iv, 1
  %29 = trunc nuw i64 %indvars.iv.next to i32
  %30 = icmp sgt i32 %., %29
  br i1 %30, label %24, label %._crit_edge, !llvm.loop !85
}